target datalayout = "e-m:e-p270:32:32-p271:32:32-p272:64:64-i64:64-i128:128-f80:128-n8:16:32:64-S128"
target triple = "x86_64-pc-linux-gnu"

%struct.AllocateDesc = type { i32, i32, %union.anon }
%union.anon = type { ptr }
%struct.vfd = type { i32, i16, ptr, i32, i32, i32, i64, ptr, i32, i32 }

@max_safe_fds = dso_local global i32 48, align 4
@.str.1 = private unnamed_addr constant [5 x i8] c"fd.c\00", align 1
@VfdCache = internal global ptr null, align 8
@.str.12 = private unnamed_addr constant [47 x i8] c"out of file descriptors: %m; release and retry\00", align 1
@numExternalFDs = internal global i32 0, align 4
@nfile = internal global i32 0, align 4
@.str.26 = private unnamed_addr constant [63 x i8] c"exceeded maxAllocatedDescs (%d) while trying to open file \22%s\22\00", align 1
@maxAllocatedDescs = internal global i32 0, align 4
@__func__.AllocateFile = private unnamed_addr constant [13 x i8] c"AllocateFile\00", align 1
@allocatedDescs = internal global ptr null, align 8
@numAllocatedDescs = internal global i32 0, align 4

; Function Attrs: nounwind uwtable
define internal zeroext i1 @ReleaseLruFile() #0 {
  %1 = alloca i1, align 1
  %2 = load i32, ptr @nfile, align 4
  %3 = icmp sgt i32 %2, 0
  br i1 %3, label %4, label %9

4:                                                ; preds = %0
  %5 = load ptr, ptr @VfdCache, align 8
  %6 = getelementptr inbounds %struct.vfd, ptr %5, i64 0
  %7 = getelementptr inbounds nuw %struct.vfd, ptr %6, i32 0, i32 4
  %8 = load i32, ptr %7, align 4
  call void @LruDelete(i32 noundef %8)
  store i1 true, ptr %1, align 1
  br label %10

9:                                                ; preds = %0
  store i1 false, ptr %1, align 1
  br label %10

10:                                               ; preds = %9, %4
  %11 = load i1, ptr %1, align 1
  ret i1 %11
}

; Function Attrs: nounwind uwtable
define internal void @ReleaseLruFiles() #0 {
  br label %1

1:                                                ; preds = %12, %0
  %2 = load i32, ptr @nfile, align 4
  %3 = load i32, ptr @numAllocatedDescs, align 4
  %4 = add i32 %2, %3
  %5 = load i32, ptr @numExternalFDs, align 4
  %6 = add i32 %4, %5
  %7 = load i32, ptr @max_safe_fds, align 4
  %8 = icmp sge i32 %6, %7
  br i1 %8, label %9, label %13

9:                                                ; preds = %1
  %10 = call zeroext i1 @ReleaseLruFile()
  br i1 %10, label %12, label %11

11:                                               ; preds = %9
  br label %13

12:                                               ; preds = %9
  br label %1, !llvm.loop !10

13:                                               ; preds = %11, %1
  ret void
}

; Function Attrs: nounwind uwtable
define dso_local ptr @AllocateFile(ptr noundef %0, ptr noundef %1) #0 {
  %3 = alloca ptr, align 8
  %4 = alloca ptr, align 8
  %5 = alloca ptr, align 8
  %6 = alloca ptr, align 8
  %7 = alloca ptr, align 8
  %8 = alloca i32, align 4
  %9 = alloca i32, align 4
  store ptr %0, ptr %4, align 8
  store ptr %1, ptr %5, align 8
  call void @llvm.lifetime.start.p0(i64 8, ptr %6) #14
  %10 = call zeroext i1 @reserveAllocatedDesc()
  br i1 %10, label %25, label %11

11:                                               ; preds = %2
  br label %12

12:                                               ; preds = %11
  br i1 true, label %13, label %15

13:                                               ; preds = %12
  %14 = call zeroext i1 @errstart_cold(i32 noundef 21, ptr noundef null) #16
  br i1 %14, label %17, label %22

15:                                               ; preds = %12
  %16 = call zeroext i1 @errstart(i32 noundef 21, ptr noundef null)
  br i1 %16, label %17, label %22

17:                                               ; preds = %15, %13
  %18 = call i32 @errcode(i32 noundef 197)
  %19 = load i32, ptr @maxAllocatedDescs, align 4
  %20 = load ptr, ptr %4, align 8
  %21 = call i32 (ptr, ...) @errmsg(ptr noundef @.str.26, i32 noundef %19, ptr noundef %20)
  call void @errfinish(ptr noundef @.str.1, i32 noundef 2617, ptr noundef @__func__.AllocateFile)
  br label %22

22:                                               ; preds = %17, %15, %13
  unreachable

23:                                               ; No predecessors!
  br label %24

24:                                               ; preds = %23
  br label %25

25:                                               ; preds = %24, %2
  call void @ReleaseLruFiles()
  br label %26

26:                                               ; preds = %77, %25
  %27 = load ptr, ptr %4, align 8
  %28 = load ptr, ptr %5, align 8
  %29 = call noalias ptr @fopen(ptr noundef %27, ptr noundef %28)
  store ptr %29, ptr %6, align 8
  %30 = icmp ne ptr %29, null
  br i1 %30, label %31, label %49

31:                                               ; preds = %26
  call void @llvm.lifetime.start.p0(i64 8, ptr %7) #14
  %32 = load ptr, ptr @allocatedDescs, align 8
  %33 = load i32, ptr @numAllocatedDescs, align 4
  %34 = sext i32 %33 to i64
  %35 = getelementptr inbounds %struct.AllocateDesc, ptr %32, i64 %34
  store ptr %35, ptr %7, align 8
  %36 = load ptr, ptr %7, align 8
  %37 = getelementptr inbounds nuw %struct.AllocateDesc, ptr %36, i32 0, i32 0
  store i32 0, ptr %37, align 8
  %38 = load ptr, ptr %6, align 8
  %39 = load ptr, ptr %7, align 8
  %40 = getelementptr inbounds nuw %struct.AllocateDesc, ptr %39, i32 0, i32 2
  store ptr %38, ptr %40, align 8
  %41 = call i32 @GetCurrentSubTransactionId()
  %42 = load ptr, ptr %7, align 8
  %43 = getelementptr inbounds nuw %struct.AllocateDesc, ptr %42, i32 0, i32 1
  store i32 %41, ptr %43, align 4
  %44 = load i32, ptr @numAllocatedDescs, align 4
  %45 = add i32 %44, 1
  store i32 %45, ptr @numAllocatedDescs, align 4
  %46 = load ptr, ptr %7, align 8
  %47 = getelementptr inbounds nuw %struct.AllocateDesc, ptr %46, i32 0, i32 2
  %48 = load ptr, ptr %47, align 8
  store ptr %48, ptr %3, align 8
  store i32 1, ptr %8, align 4
  call void @llvm.lifetime.end.p0(i64 8, ptr %7) #14
  br label %81

49:                                               ; preds = %26
  %50 = call ptr @__errno_location() #15
  %51 = load i32, ptr %50, align 4
  %52 = icmp eq i32 %51, 24
  br i1 %52, label %57, label %53

53:                                               ; preds = %49
  %54 = call ptr @__errno_location() #15
  %55 = load i32, ptr %54, align 4
  %56 = icmp eq i32 %55, 23
  br i1 %56, label %57, label %80

57:                                               ; preds = %53, %49
  call void @llvm.lifetime.start.p0(i64 4, ptr %9) #14
  %58 = call ptr @__errno_location() #15
  %59 = load i32, ptr %58, align 4
  store i32 %59, ptr %9, align 4
  br label %60

60:                                               ; preds = %57
  br i1 false, label %61, label %63

61:                                               ; preds = %60
  %62 = call zeroext i1 @errstart_cold(i32 noundef 15, ptr noundef null) #16
  br i1 %62, label %65, label %68

63:                                               ; preds = %60
  %64 = call zeroext i1 @errstart(i32 noundef 15, ptr noundef null)
  br i1 %64, label %65, label %68

65:                                               ; preds = %63, %61
  %66 = call i32 @errcode(i32 noundef 197)
  %67 = call i32 (ptr, ...) @errmsg(ptr noundef @.str.12)
  call void @errfinish(ptr noundef @.str.1, i32 noundef 2640, ptr noundef @__func__.AllocateFile)
  br label %68

68:                                               ; preds = %65, %63, %61
  br label %69

69:                                               ; preds = %68
  br label %70

70:                                               ; preds = %69
  %71 = call ptr @__errno_location() #15
  store i32 0, ptr %71, align 4
  %72 = call zeroext i1 @ReleaseLruFile()
  br i1 %72, label %73, label %74

73:                                               ; preds = %70
  store i32 4, ptr %8, align 4
  br label %77

74:                                               ; preds = %70
  %75 = load i32, ptr %9, align 4
  %76 = call ptr @__errno_location() #15
  store i32 %75, ptr %76, align 4
  store i32 0, ptr %8, align 4
  br label %77

77:                                               ; preds = %74, %73
  call void @llvm.lifetime.end.p0(i64 4, ptr %9) #14
  %78 = load i32, ptr %8, align 4
  switch i32 %78, label %83 [
    i32 0, label %79
    i32 4, label %26
  ]

79:                                               ; preds = %77
  br label %80

80:                                               ; preds = %79, %53
  store ptr null, ptr %3, align 8
  store i32 1, ptr %8, align 4
  br label %81

81:                                               ; preds = %80, %31
  call void @llvm.lifetime.end.p0(i64 8, ptr %6) #14
  %82 = load ptr, ptr %3, align 8
  ret ptr %82

83:                                               ; preds = %77
  unreachable
}