; Function Attrs: nounwind uwtable
define dso_local ptr @AllocateFile(ptr noundef %0, ptr noundef readonly captures(none) %1) local_unnamed_addr #0 {
  %3 = tail call fastcc zeroext i1 @reserveAllocatedDesc()
  br i1 %3, label %9, label %4

4:                                                ; preds = %2
  %5 = tail call zeroext i1 @errstart_cold(i32 noundef 21, ptr noundef null) #27
  tail call void @llvm.assume(i1 %5)
  %6 = tail call i32 @errcode(i32 noundef 197) #25
  %7 = load i32, ptr @maxAllocatedDescs, align 4
  %8 = tail call i32 (ptr, ...) @errmsg(ptr noundef nonnull @.str.26, i32 noundef %7, ptr noundef %0) #25
  tail call void @errfinish(ptr noundef nonnull @.str.1, i32 noundef 2617, ptr noundef nonnull @__func__.AllocateFile) #25
  unreachable

9:                                                ; preds = %2
  %10 = load i32, ptr @nfile, align 4
  %11 = load i32, ptr @numAllocatedDescs, align 4
  %12 = add i32 %11, %10
  %13 = load i32, ptr @numExternalFDs, align 4
  %14 = add i32 %12, %13
  %15 = load i32, ptr @max_safe_fds, align 4
  %.not1.i = icmp sge i32 %14, %15
  %16 = icmp sgt i32 %10, 0
  %or.cond2.i = and i1 %16, %.not1.i
  br i1 %or.cond2.i, label %ReleaseLruFile.exit.i, label %ReleaseLruFiles.exit

ReleaseLruFile.exit.i:                            ; preds = %9, %ReleaseLruFile.exit.i
  %17 = load ptr, ptr @VfdCache, align 8
  %18 = getelementptr inbounds nuw i8, ptr %17, i64 20
  %19 = load i32, ptr %18, align 4
  tail call fastcc void @LruDelete(i32 noundef %19)
  %20 = load i32, ptr @nfile, align 4
  %21 = load i32, ptr @numAllocatedDescs, align 4
  %22 = add i32 %21, %20
  %23 = load i32, ptr @numExternalFDs, align 4
  %24 = add i32 %22, %23
  %25 = load i32, ptr @max_safe_fds, align 4
  %.not.i = icmp sge i32 %24, %25
  %26 = icmp sgt i32 %20, 0
  %or.cond.i = and i1 %26, %.not.i
  br i1 %or.cond.i, label %ReleaseLruFile.exit.i, label %ReleaseLruFiles.exit, !llvm.loop !9

ReleaseLruFiles.exit:                             ; preds = %ReleaseLruFile.exit.i, %9
  %27 = tail call noalias ptr @fopen(ptr noundef %0, ptr noundef %1)
  %.not22 = icmp eq ptr %27, null
  br i1 %.not22, label %.lr.ph, label %._crit_edge

.lr.ph:                                           ; preds = %ReleaseLruFiles.exit
  %28 = tail call ptr @__errno_location() #26
  br label %39

._crit_edge:                                      ; preds = %49, %ReleaseLruFiles.exit
  %.lcssa = phi ptr [ %27, %ReleaseLruFiles.exit ], [ %53, %49 ]
  %29 = load ptr, ptr @allocatedDescs, align 8
  %30 = load i32, ptr @numAllocatedDescs, align 4
  %31 = sext i32 %30 to i64
  %32 = getelementptr inbounds %struct.AllocateDesc, ptr %29, i64 %31
  store i32 0, ptr %32, align 8
  %33 = getelementptr inbounds nuw i8, ptr %32, i64 8
  store ptr %.lcssa, ptr %33, align 8
  %34 = tail call i32 @GetCurrentSubTransactionId() #25
  %35 = getelementptr inbounds nuw i8, ptr %32, i64 4
  store i32 %34, ptr %35, align 4
  %36 = load i32, ptr @numAllocatedDescs, align 4
  %37 = add i32 %36, 1
  store i32 %37, ptr @numAllocatedDescs, align 4
  %38 = load ptr, ptr %33, align 8
  br label %.loopexit

39:                                               ; preds = %.lr.ph, %49
  %40 = load i32, ptr %28, align 4
  %.off = add i32 %40, -23
  %switch13 = icmp ult i32 %.off, 2
  br i1 %switch13, label %41, label %.loopexit

41:                                               ; preds = %39
  %42 = tail call zeroext i1 @errstart(i32 noundef 15, ptr noundef null) #25
  br i1 %42, label %43, label %46

43:                                               ; preds = %41
  %44 = tail call i32 @errcode(i32 noundef 197) #25
  %45 = tail call i32 (ptr, ...) @errmsg(ptr noundef nonnull @.str.12) #25
  tail call void @errfinish(ptr noundef nonnull @.str.1, i32 noundef 2640, ptr noundef nonnull @__func__.AllocateFile) #25
  br label %46

46:                                               ; preds = %43, %41
  store i32 0, ptr %28, align 4
  %47 = load i32, ptr @nfile, align 4
  %48 = icmp sgt i32 %47, 0
  br i1 %48, label %49, label %.thread

.thread:                                          ; preds = %46
  store i32 %40, ptr %28, align 4
  br label %.loopexit

49:                                               ; preds = %46
  %50 = load ptr, ptr @VfdCache, align 8
  %51 = getelementptr inbounds nuw i8, ptr %50, i64 20
  %52 = load i32, ptr %51, align 4
  tail call fastcc void @LruDelete(i32 noundef %52)
  %53 = tail call noalias ptr @fopen(ptr noundef %0, ptr noundef %1)
  %.not = icmp eq ptr %53, null
  br i1 %.not, label %39, label %._crit_edge

.loopexit:                                        ; preds = %39, %.thread, %._crit_edge
  %.0 = phi ptr [ %38, %._crit_edge ], [ null, %.thread ], [ null, %39 ]
  ret ptr %.0
}